; ModuleID = '53/619.c'
source_filename = "53/619.c"
target datalayout = "e-m:e-p270:32:32-p271:32:32-p272:64:64-i64:64-f80:128-n8:16:32:64-S128"
target triple = "x86_64-pc-linux-gnu"

@.str = private unnamed_addr constant [3 x i8] c"%d\00", align 1
@.str.1 = private unnamed_addr constant [4 x i8] c"%d,\00", align 1
@.str.2 = private unnamed_addr constant [4 x i8] c"%d\0A\00", align 1

; Function Attrs: noinline nounwind uwtable
define dso_local void @main() #0 {
  %1 = alloca [300 x i32], align 16
  %2 = alloca [300 x i32], align 16
  %3 = alloca i32, align 4
  %4 = alloca i32, align 4
  %5 = alloca i32, align 4
  %6 = call i32 (i8*, ...) @__isoc99_scanf(i8* getelementptr inbounds ([3 x i8], [3 x i8]* @.str, i64 0, i64 0), i32* %3)
  store i32 0, i32* %4, align 4
  br label %7

7:                                                ; preds = %17, %0
  %8 = load i32, i32* %4, align 4
  %9 = load i32, i32* %3, align 4
  %10 = sub nsw i32 %9, 1
  %11 = icmp sle i32 %8, %10
  br i1 %11, label %12, label %20

12:                                               ; preds = %7
  %13 = load i32, i32* %4, align 4
  %14 = sext i32 %13 to i64
  %15 = getelementptr inbounds [300 x i32], [300 x i32]* %1, i64 0, i64 %14
  %16 = call i32 (i8*, ...) @__isoc99_scanf(i8* getelementptr inbounds ([3 x i8], [3 x i8]* @.str, i64 0, i64 0), i32* %15)
  br label %17

17:                                               ; preds = %12
  %18 = load i32, i32* %4, align 4
  %19 = add nsw i32 %18, 1
  store i32 %19, i32* %4, align 4
  br label %7

20:                                               ; preds = %7
  %21 = getelementptr inbounds [300 x i32], [300 x i32]* %1, i64 0, i64 0
  %22 = getelementptr inbounds [300 x i32], [300 x i32]* %2, i64 0, i64 0
  %23 = load i32, i32* %3, align 4
  %24 = call i32 @f(i32* %21, i32* %22, i32 %23)
  store i32 %24, i32* %5, align 4
  store i32 0, i32* %4, align 4
  br label %25

25:                                               ; preds = %37, %20
  %26 = load i32, i32* %4, align 4
  %27 = load i32, i32* %5, align 4
  %28 = sub nsw i32 %27, 1
  %29 = icmp sle i32 %26, %28
  br i1 %29, label %30, label %40

30:                                               ; preds = %25
  %31 = getelementptr inbounds [300 x i32], [300 x i32]* %2, i64 0, i64 0
  %32 = load i32, i32* %4, align 4
  %33 = sext i32 %32 to i64
  %34 = getelementptr inbounds i32, i32* %31, i64 %33
  %35 = load i32, i32* %34, align 4
  %36 = call i32 (i8*, ...) @printf(i8* getelementptr inbounds ([4 x i8], [4 x i8]* @.str.1, i64 0, i64 0), i32 %35)
  br label %37

37:                                               ; preds = %30
  %38 = load i32, i32* %4, align 4
  %39 = add nsw i32 %38, 1
  store i32 %39, i32* %4, align 4
  br label %25

40:                                               ; preds = %25
  %41 = getelementptr inbounds [300 x i32], [300 x i32]* %2, i64 0, i64 0
  %42 = load i32, i32* %5, align 4
  %43 = sext i32 %42 to i64
  %44 = getelementptr inbounds i32, i32* %41, i64 %43
  %45 = load i32, i32* %44, align 4
  %46 = call i32 (i8*, ...) @printf(i8* getelementptr inbounds ([4 x i8], [4 x i8]* @.str.2, i64 0, i64 0), i32 %45)
  ret void
}

declare dso_local i32 @__isoc99_scanf(i8*, ...) #1

; Function Attrs: noinline nounwind uwtable
define dso_local i32 @f(i32* %0, i32* %1, i32 %2) #0 {
  %4 = alloca i32*, align 8
  %5 = alloca i32*, align 8
  %6 = alloca i32, align 4
  %7 = alloca i32, align 4
  %8 = alloca i32, align 4
  %9 = alloca i32, align 4
  store i32* %0, i32** %4, align 8
  store i32* %1, i32** %5, align 8
  store i32 %2, i32* %6, align 4
  store i32 0, i32* %9, align 4
  %10 = load i32*, i32** %4, align 8
  %11 = load i32, i32* %10, align 4
  %12 = load i32*, i32** %5, align 8
  store i32 %11, i32* %12, align 4
  store i32 1, i32* %7, align 4
  br label %13

13:                                               ; preds = %58, %3
  %14 = load i32, i32* %7, align 4
  %15 = load i32, i32* %6, align 4
  %16 = sub nsw i32 %15, 1
  %17 = icmp sle i32 %14, %16
  br i1 %17, label %18, label %61

18:                                               ; preds = %13
  store i32 0, i32* %8, align 4
  br label %19

19:                                               ; preds = %37, %18
  %20 = load i32, i32* %8, align 4
  %21 = load i32, i32* %9, align 4
  %22 = icmp sle i32 %20, %21
  br i1 %22, label %23, label %40

23:                                               ; preds = %19
  %24 = load i32*, i32** %4, align 8
  %25 = load i32, i32* %7, align 4
  %26 = sext i32 %25 to i64
  %27 = getelementptr inbounds i32, i32* %24, i64 %26
  %28 = load i32, i32* %27, align 4
  %29 = load i32*, i32** %5, align 8
  %30 = load i32, i32* %8, align 4
  %31 = sext i32 %30 to i64
  %32 = getelementptr inbounds i32, i32* %29, i64 %31
  %33 = load i32, i32* %32, align 4
  %34 = icmp eq i32 %28, %33
  br i1 %34, label %35, label %36

35:                                               ; preds = %23
  br label %40

36:                                               ; preds = %23
  br label %37

37:                                               ; preds = %36
  %38 = load i32, i32* %8, align 4
  %39 = add nsw i32 %38, 1
  store i32 %39, i32* %8, align 4
  br label %19

40:                                               ; preds = %35, %19
  %41 = load i32, i32* %8, align 4
  %42 = load i32, i32* %9, align 4
  %43 = add nsw i32 %42, 1
  %44 = icmp eq i32 %41, %43
  br i1 %44, label %45, label %57

45:                                               ; preds = %40
  %46 = load i32*, i32** %4, align 8
  %47 = load i32, i32* %7, align 4
  %48 = sext i32 %47 to i64
  %49 = getelementptr inbounds i32, i32* %46, i64 %48
  %50 = load i32, i32* %49, align 4
  %51 = load i32*, i32** %5, align 8
  %52 = load i32, i32* %8, align 4
  %53 = sext i32 %52 to i64
  %54 = getelementptr inbounds i32, i32* %51, i64 %53
  store i32 %50, i32* %54, align 4
  %55 = load i32, i32* %9, align 4
  %56 = add nsw i32 %55, 1
  store i32 %56, i32* %9, align 4
  br label %57

57:                                               ; preds = %45, %40
  br label %58

58:                                               ; preds = %57
  %59 = load i32, i32* %7, align 4
  %60 = add nsw i32 %59, 1
  store i32 %60, i32* %7, align 4
  br label %13

61:                                               ; preds = %13
  %62 = load i32, i32* %9, align 4
  ret i32 %62
}

declare dso_local i32 @printf(i8*, ...) #1


!llvm.module.flags = !{!0}
!llvm.ident = !{!1}

!0 = !{i32 1, !"wchar_size", i32 4}
!1 = !{!"clang version 10.0.0-4ubuntu1 "}
